; Function Attrs: mustprogress uwtable
define void @_ZN7rocksdb21AppendEscapedStringToEPNSt7__cxx1112basic_stringIcSt11char_traitsIcESaIcEEERKNS_5SliceE(ptr noundef %0, ptr noundef nonnull readonly align 8 captures(none) dereferenceable(16) %1) local_unnamed_addr #3 personality ptr @__gxx_personality_v0 {
  %3 = alloca [10 x i8], align 1
  %4 = getelementptr inbounds nuw i8, ptr %1, i64 8
  %5 = load i64, ptr %4, align 8, !tbaa !37
  %.not = icmp eq i64 %5, 0
  br i1 %.not, label %._crit_edge, label %.lr.ph

.lr.ph:                                           ; preds = %2
  %6 = getelementptr inbounds nuw i8, ptr %0, i64 8
  %7 = getelementptr inbounds nuw i8, ptr %0, i64 16
  br label %8

._crit_edge:                                      ; preds = %37, %2
  ret void

8:                                                ; preds = %.lr.ph, %37
  %.012 = phi i64 [ 0, %.lr.ph ], [ %38, %37 ]
  %9 = load ptr, ptr %1, align 8, !tbaa !39
  %10 = getelementptr inbounds nuw i8, ptr %9, i64 %.012
  %11 = load i8, ptr %10, align 1, !tbaa !13
  %12 = add i8 %11, -32
  %or.cond = icmp ult i8 %12, 95
  br i1 %or.cond, label %13, label %28

13:                                               ; preds = %8
  %14 = load i64, ptr %6, align 8, !tbaa !10
  %15 = add i64 %14, 1
  %16 = load ptr, ptr %0, align 8, !tbaa !30
  %17 = icmp eq ptr %16, %7
  br i1 %17, label %18, label %_ZNKSt7__cxx1112basic_stringIcSt11char_traitsIcESaIcEE8capacityEv.exit.i

18:                                               ; preds = %13
  %19 = icmp ult i64 %14, 16
  call void @llvm.assume(i1 %19)
  br label %_ZNKSt7__cxx1112basic_stringIcSt11char_traitsIcESaIcEE8capacityEv.exit.i

_ZNKSt7__cxx1112basic_stringIcSt11char_traitsIcESaIcEE8capacityEv.exit.i: ; preds = %18, %13
  %20 = load i64, ptr %7, align 8
  %21 = select i1 %17, i64 15, i64 %20
  %22 = icmp ugt i64 %15, %21
  br i1 %22, label %23, label %_ZNSt7__cxx1112basic_stringIcSt11char_traitsIcESaIcEE9push_backEc.exit

23:                                               ; preds = %_ZNKSt7__cxx1112basic_stringIcSt11char_traitsIcESaIcEE8capacityEv.exit.i
  call void @_ZNSt7__cxx1112basic_stringIcSt11char_traitsIcESaIcEE9_M_mutateEmmPKcm(ptr noundef nonnull align 8 dereferenceable(32) %0, i64 noundef %14, i64 noundef 0, ptr noundef null, i64 noundef 1)
  %.pre.i = load ptr, ptr %0, align 8, !tbaa !30
  br label %_ZNSt7__cxx1112basic_stringIcSt11char_traitsIcESaIcEE9push_backEc.exit

_ZNSt7__cxx1112basic_stringIcSt11char_traitsIcESaIcEE9push_backEc.exit: ; preds = %_ZNKSt7__cxx1112basic_stringIcSt11char_traitsIcESaIcEE8capacityEv.exit.i, %23
  %24 = phi ptr [ %.pre.i, %23 ], [ %16, %_ZNKSt7__cxx1112basic_stringIcSt11char_traitsIcESaIcEE8capacityEv.exit.i ]
  %25 = getelementptr inbounds nuw i8, ptr %24, i64 %14
  store i8 %11, ptr %25, align 1, !tbaa !13
  store i64 %15, ptr %6, align 8, !tbaa !10
  %26 = load ptr, ptr %0, align 8, !tbaa !30
  %27 = getelementptr inbounds nuw i8, ptr %26, i64 %15
  store i8 0, ptr %27, align 1, !tbaa !13
  br label %37

28:                                               ; preds = %8
  %29 = zext i8 %11 to i32
  call void @llvm.lifetime.start.p0(i64 10, ptr nonnull %3) #26
  %30 = call i32 (ptr, i64, ptr, ...) @snprintf(ptr noundef nonnull dereferenceable(1) %3, i64 noundef 10, ptr noundef nonnull @.str.12, i32 noundef %29) #26
  %31 = call noundef i64 @strlen(ptr noundef nonnull dereferenceable(1) %3) #26
  %32 = load i64, ptr %6, align 8, !tbaa !10
  %33 = sub i64 4611686018427387903, %32
  %34 = icmp ult i64 %33, %31
  br i1 %34, label %35, label %_ZNSt7__cxx1112basic_stringIcSt11char_traitsIcESaIcEE6appendEPKc.exit

35:                                               ; preds = %28
  call void @_ZSt20__throw_length_errorPKc(ptr noundef nonnull @.str.33) #28
  unreachable

_ZNSt7__cxx1112basic_stringIcSt11char_traitsIcESaIcEE6appendEPKc.exit: ; preds = %28
  %36 = call noundef nonnull align 8 dereferenceable(32) ptr @_ZNSt7__cxx1112basic_stringIcSt11char_traitsIcESaIcEE9_M_appendEPKcm(ptr noundef nonnull align 8 dereferenceable(32) %0, ptr noundef nonnull %3, i64 noundef %31)
  call void @llvm.lifetime.end.p0(i64 10, ptr nonnull %3) #26
  br label %37

37:                                               ; preds = %_ZNSt7__cxx1112basic_stringIcSt11char_traitsIcESaIcEE6appendEPKc.exit, %_ZNSt7__cxx1112basic_stringIcSt11char_traitsIcESaIcEE9push_backEc.exit
  %38 = add nuw i64 %.012, 1
  %39 = load i64, ptr %4, align 8, !tbaa !37
  %40 = icmp ult i64 %38, %39
  br i1 %40, label %8, label %._crit_edge, !llvm.loop !40
}